target datalayout = "e-m:e-p270:32:32-p271:32:32-p272:64:64-i64:64-i128:128-f80:128-n8:16:32:64-S128"
target triple = "x86_64-pc-linux-gnu"

%"class.icu_77::ErrorCode" = type <{ ptr, i32, [4 x i8] }>

@_ZTVN6icu_779ErrorCodeE = external unnamed_addr constant { [5 x ptr] }, align 8

; Function Attrs: mustprogress nounwind uwtable
define linkonce_odr noundef nonnull align 4 dereferenceable(4) ptr @_ZN6icu_779ErrorCodecvR10UErrorCodeEv(ptr noundef nonnull align 8 dereferenceable(12) %0) #0 comdat align 2 {
  %2 = alloca ptr, align 8
  store ptr %0, ptr %2, align 8, !tbaa !245
  %3 = load ptr, ptr %2, align 8
  %4 = getelementptr inbounds nuw %"class.icu_77::ErrorCode", ptr %3, i32 0, i32 1
  ret ptr %4
}

; Function Attrs: mustprogress nounwind uwtable
define linkonce_odr void @_ZN6icu_779ErrorCodeC2Ev(ptr noundef nonnull align 8 dereferenceable(12) %0) unnamed_addr #0 comdat align 2 {
  %2 = alloca ptr, align 8
  store ptr %0, ptr %2, align 8, !tbaa !245
  %3 = load ptr, ptr %2, align 8
  store ptr getelementptr inbounds inrange(-16, 24) ({ [5 x ptr] }, ptr @_ZTVN6icu_779ErrorCodeE, i32 0, i32 0, i32 2), ptr %3, align 8, !tbaa !29
  %4 = getelementptr inbounds nuw %"class.icu_77::ErrorCode", ptr %3, i32 0, i32 1
  store i32 0, ptr %4, align 8, !tbaa !247
  ret void
}

; Function Attrs: mustprogress uwtable
define void @_ZN6icu_7713DecimalFormat11setCurrencyEPKDs(ptr noundef nonnull align 8 dereferenceable(72) %0, ptr noundef %1) unnamed_addr #1 align 2 personality ptr @__gxx_personality_v0 {
  %3 = alloca ptr, align 8
  %4 = alloca ptr, align 8
  %5 = alloca %"class.icu_77::ErrorCode", align 8
  %6 = alloca ptr, align 8
  %7 = alloca i32, align 4
  store ptr %0, ptr %3, align 8, !tbaa !23
  store ptr %1, ptr %4, align 8, !tbaa !25
  %8 = load ptr, ptr %3, align 8
  call void @llvm.lifetime.start.p0(i64 16, ptr %5) #15
  call void @_ZN6icu_779ErrorCodeC2Ev(ptr noundef nonnull align 8 dereferenceable(12) %5)
  %9 = load ptr, ptr %4, align 8, !tbaa !25
  %10 = invoke noundef nonnull align 4 dereferenceable(4) ptr @_ZN6icu_779ErrorCodecvR10UErrorCodeEv(ptr noundef nonnull align 8 dereferenceable(12) %5)
          to label %11 unwind label %16

11:                                               ; preds = %2
  %12 = load ptr, ptr %8, align 8, !tbaa !29
  %13 = getelementptr inbounds ptr, ptr %12, i64 31
  %14 = load ptr, ptr %13, align 8
  invoke void %14(ptr noundef nonnull align 8 dereferenceable(72) %8, ptr noundef %9, ptr noundef nonnull align 4 dereferenceable(4) %10)
          to label %15 unwind label %16

15:                                               ; preds = %11
  call void @_ZN6icu_779ErrorCodeD1Ev(ptr noundef nonnull align 8 dereferenceable(12) %5) #15
  call void @llvm.lifetime.end.p0(i64 16, ptr %5) #15
  ret void

16:                                               ; preds = %11, %2
  %17 = landingpad { ptr, i32 }
          cleanup
  %18 = extractvalue { ptr, i32 } %17, 0
  store ptr %18, ptr %6, align 8
  %19 = extractvalue { ptr, i32 } %17, 1
  store i32 %19, ptr %7, align 4
  call void @_ZN6icu_779ErrorCodeD1Ev(ptr noundef nonnull align 8 dereferenceable(12) %5) #15
  call void @llvm.lifetime.end.p0(i64 16, ptr %5) #15
  br label %20

20:                                               ; preds = %16
  %21 = load ptr, ptr %6, align 8
  %22 = load i32, ptr %7, align 4
  %23 = insertvalue { ptr, i32 } poison, ptr %21, 0
  %24 = insertvalue { ptr, i32 } %23, i32 %22, 1
  resume { ptr, i32 } %24
}